target datalayout = "e-m:e-p270:32:32-p271:32:32-p272:64:64-i64:64-i128:128-f80:128-n8:16:32:64-S128"
target triple = "x86_64-pc-linux-gnu"

; Function Attrs: mustprogress uwtable
define void @_ZN5faiss13InvertedLists12update_entryEmmlPKh(ptr noundef nonnull align 8 dereferenceable(25) %0, i64 noundef %1, i64 noundef %2, i64 noundef %3, ptr noundef %4) unnamed_addr #2 align 2 {
  %6 = alloca ptr, align 8
  %7 = alloca i64, align 8
  %8 = alloca i64, align 8
  %9 = alloca i64, align 8
  %10 = alloca ptr, align 8
  store ptr %0, ptr %6, align 8, !tbaa !9
  store i64 %1, ptr %7, align 8, !tbaa !11
  store i64 %2, ptr %8, align 8, !tbaa !11
  store i64 %3, ptr %9, align 8, !tbaa !11
  store ptr %4, ptr %10, align 8, !tbaa !13
  %11 = load ptr, ptr %6, align 8
  %12 = load i64, ptr %7, align 8, !tbaa !11
  %13 = load i64, ptr %8, align 8, !tbaa !11
  %14 = load ptr, ptr %10, align 8, !tbaa !13
  %15 = load ptr, ptr %11, align 8, !tbaa !17
  %16 = getelementptr inbounds ptr, ptr %15, i64 15
  %17 = load ptr, ptr %16, align 8
  call void %17(ptr noundef nonnull align 8 dereferenceable(25) %11, i64 noundef %12, i64 noundef %13, i64 noundef 1, ptr noundef %9, ptr noundef %14)
  ret void
}